; Function Attrs: mustprogress nofree norecurse nosync nounwind willreturn memory(read, inaccessiblemem: none) uwtable
define hidden noundef i32 @_ZNK7datalog12sparse_table23get_size_estimate_bytesEv(ptr nocapture noundef nonnull readonly align 8 dereferenceable(184) %this) unnamed_addr #5 align 2 {
entry:
  %m_data.i = getelementptr inbounds i8, ptr %this, i64 88
  %0 = load ptr, ptr %m_data.i, align 8
  %cmp.i.i = icmp eq ptr %0, null
  br i1 %cmp.i.i, label %_ZNK7datalog13entry_storage23get_size_estimate_bytesEv.exit, label %if.end.i.i

if.end.i.i:                                       ; preds = %entry
  %arrayidx.i.i = getelementptr inbounds i8, ptr %0, i64 -16
  %1 = load i64, ptr %arrayidx.i.i, align 8
  br label %_ZNK7datalog13entry_storage23get_size_estimate_bytesEv.exit

_ZNK7datalog13entry_storage23get_size_estimate_bytesEv.exit: ; preds = %entry, %if.end.i.i
  %retval.0.i.i = phi i64 [ %1, %if.end.i.i ], [ 0, %entry ]
  %m_capacity.i.i = getelementptr inbounds i8, ptr %this, i64 136
  %2 = load i32, ptr %m_capacity.i.i, align 8
  %conv.i = zext i32 %2 to i64
  %mul.i = shl nuw nsw i64 %conv.i, 4
  %add.i = add i64 %mul.i, %retval.0.i.i
  %conv3.i = trunc i64 %add.i to i32
  %m_capacity.i.i3 = getelementptr inbounds i8, ptr %this, i64 168
  %3 = load i32, ptr %m_capacity.i.i3, align 8
  %mul = shl i32 %3, 3
  %add3 = add i32 %mul, %conv3.i
  ret i32 %add3
}